target datalayout = "e-m:e-p270:32:32-p271:32:32-p272:64:64-i64:64-i128:128-f80:128-n8:16:32:64-S128"
target triple = "x86_64-pc-linux-gnu"

; Function Attrs: nounwind sspstrong uwtable
define internal i64 @fun_so_to_utf_32le(ptr noundef %0, ptr noundef %1, i64 noundef %2, ptr noundef %3, i64 noundef %4) #0 {
  %6 = alloca ptr, align 8
  %7 = alloca ptr, align 8
  %8 = alloca i64, align 8
  %9 = alloca ptr, align 8
  %10 = alloca i64, align 8
  store ptr %0, ptr %6, align 8, !tbaa !6
  store ptr %1, ptr %7, align 8, !tbaa !10
  store i64 %2, ptr %8, align 8, !tbaa !12
  store ptr %3, ptr %9, align 8, !tbaa !10
  store i64 %4, ptr %10, align 8, !tbaa !12
  %11 = load ptr, ptr %9, align 8, !tbaa !10
  %12 = getelementptr inbounds i8, ptr %11, i64 3
  store i8 0, ptr %12, align 1, !tbaa !14
  %13 = load ptr, ptr %7, align 8, !tbaa !10
  %14 = getelementptr inbounds i8, ptr %13, i64 0
  %15 = load i8, ptr %14, align 1, !tbaa !14
  %16 = zext i8 %15 to i32
  %17 = and i32 %16, 128
  %18 = icmp ne i32 %17, 0
  br i1 %18, label %29, label %19

19:                                               ; preds = %5
  %20 = load ptr, ptr %9, align 8, !tbaa !10
  %21 = getelementptr inbounds i8, ptr %20, i64 1
  store i8 0, ptr %21, align 1, !tbaa !14
  %22 = load ptr, ptr %9, align 8, !tbaa !10
  %23 = getelementptr inbounds i8, ptr %22, i64 2
  store i8 0, ptr %23, align 1, !tbaa !14
  %24 = load ptr, ptr %7, align 8, !tbaa !10
  %25 = getelementptr inbounds i8, ptr %24, i64 0
  %26 = load i8, ptr %25, align 1, !tbaa !14
  %27 = load ptr, ptr %9, align 8, !tbaa !10
  %28 = getelementptr inbounds i8, ptr %27, i64 0
  store i8 %26, ptr %28, align 1, !tbaa !14
  br label %152

29:                                               ; preds = %5
  %30 = load ptr, ptr %7, align 8, !tbaa !10
  %31 = getelementptr inbounds i8, ptr %30, i64 0
  %32 = load i8, ptr %31, align 1, !tbaa !14
  %33 = zext i8 %32 to i32
  %34 = and i32 %33, 224
  %35 = icmp eq i32 %34, 192
  br i1 %35, label %36, label %63

36:                                               ; preds = %29
  %37 = load ptr, ptr %9, align 8, !tbaa !10
  %38 = getelementptr inbounds i8, ptr %37, i64 2
  store i8 0, ptr %38, align 1, !tbaa !14
  %39 = load ptr, ptr %7, align 8, !tbaa !10
  %40 = getelementptr inbounds i8, ptr %39, i64 0
  %41 = load i8, ptr %40, align 1, !tbaa !14
  %42 = zext i8 %41 to i32
  %43 = ashr i32 %42, 2
  %44 = and i32 %43, 7
  %45 = trunc i32 %44 to i8
  %46 = load ptr, ptr %9, align 8, !tbaa !10
  %47 = getelementptr inbounds i8, ptr %46, i64 1
  store i8 %45, ptr %47, align 1, !tbaa !14
  %48 = load ptr, ptr %7, align 8, !tbaa !10
  %49 = getelementptr inbounds i8, ptr %48, i64 0
  %50 = load i8, ptr %49, align 1, !tbaa !14
  %51 = zext i8 %50 to i32
  %52 = and i32 %51, 3
  %53 = shl i32 %52, 6
  %54 = load ptr, ptr %7, align 8, !tbaa !10
  %55 = getelementptr inbounds i8, ptr %54, i64 1
  %56 = load i8, ptr %55, align 1, !tbaa !14
  %57 = zext i8 %56 to i32
  %58 = and i32 %57, 63
  %59 = or i32 %53, %58
  %60 = trunc i32 %59 to i8
  %61 = load ptr, ptr %9, align 8, !tbaa !10
  %62 = getelementptr inbounds i8, ptr %61, i64 0
  store i8 %60, ptr %62, align 1, !tbaa !14
  br label %151

63:                                               ; preds = %29
  %64 = load ptr, ptr %7, align 8, !tbaa !10
  %65 = getelementptr inbounds i8, ptr %64, i64 0
  %66 = load i8, ptr %65, align 1, !tbaa !14
  %67 = zext i8 %66 to i32
  %68 = and i32 %67, 240
  %69 = icmp eq i32 %68, 224
  br i1 %69, label %70, label %102

70:                                               ; preds = %63
  %71 = load ptr, ptr %9, align 8, !tbaa !10
  %72 = getelementptr inbounds i8, ptr %71, i64 2
  store i8 0, ptr %72, align 1, !tbaa !14
  %73 = load ptr, ptr %7, align 8, !tbaa !10
  %74 = getelementptr inbounds i8, ptr %73, i64 0
  %75 = load i8, ptr %74, align 1, !tbaa !14
  %76 = zext i8 %75 to i32
  %77 = shl i32 %76, 4
  %78 = load ptr, ptr %7, align 8, !tbaa !10
  %79 = getelementptr inbounds i8, ptr %78, i64 1
  %80 = load i8, ptr %79, align 1, !tbaa !14
  %81 = zext i8 %80 to i32
  %82 = ashr i32 %81, 2
  %83 = xor i32 %82, 32
  %84 = or i32 %77, %83
  %85 = trunc i32 %84 to i8
  %86 = load ptr, ptr %9, align 8, !tbaa !10
  %87 = getelementptr inbounds i8, ptr %86, i64 1
  store i8 %85, ptr %87, align 1, !tbaa !14
  %88 = load ptr, ptr %7, align 8, !tbaa !10
  %89 = getelementptr inbounds i8, ptr %88, i64 1
  %90 = load i8, ptr %89, align 1, !tbaa !14
  %91 = zext i8 %90 to i32
  %92 = shl i32 %91, 6
  %93 = load ptr, ptr %7, align 8, !tbaa !10
  %94 = getelementptr inbounds i8, ptr %93, i64 2
  %95 = load i8, ptr %94, align 1, !tbaa !14
  %96 = zext i8 %95 to i32
  %97 = xor i32 %96, 128
  %98 = or i32 %92, %97
  %99 = trunc i32 %98 to i8
  %100 = load ptr, ptr %9, align 8, !tbaa !10
  %101 = getelementptr inbounds i8, ptr %100, i64 0
  store i8 %99, ptr %101, align 1, !tbaa !14
  br label %150

102:                                              ; preds = %63
  %103 = load ptr, ptr %7, align 8, !tbaa !10
  %104 = getelementptr inbounds i8, ptr %103, i64 0
  %105 = load i8, ptr %104, align 1, !tbaa !14
  %106 = zext i8 %105 to i32
  %107 = and i32 %106, 7
  %108 = shl i32 %107, 2
  %109 = load ptr, ptr %7, align 8, !tbaa !10
  %110 = getelementptr inbounds i8, ptr %109, i64 1
  %111 = load i8, ptr %110, align 1, !tbaa !14
  %112 = zext i8 %111 to i32
  %113 = ashr i32 %112, 4
  %114 = and i32 %113, 3
  %115 = or i32 %108, %114
  %116 = trunc i32 %115 to i8
  %117 = load ptr, ptr %9, align 8, !tbaa !10
  %118 = getelementptr inbounds i8, ptr %117, i64 2
  store i8 %116, ptr %118, align 1, !tbaa !14
  %119 = load ptr, ptr %7, align 8, !tbaa !10
  %120 = getelementptr inbounds i8, ptr %119, i64 1
  %121 = load i8, ptr %120, align 1, !tbaa !14
  %122 = zext i8 %121 to i32
  %123 = and i32 %122, 15
  %124 = shl i32 %123, 4
  %125 = load ptr, ptr %7, align 8, !tbaa !10
  %126 = getelementptr inbounds i8, ptr %125, i64 2
  %127 = load i8, ptr %126, align 1, !tbaa !14
  %128 = zext i8 %127 to i32
  %129 = ashr i32 %128, 2
  %130 = and i32 %129, 15
  %131 = or i32 %124, %130
  %132 = trunc i32 %131 to i8
  %133 = load ptr, ptr %9, align 8, !tbaa !10
  %134 = getelementptr inbounds i8, ptr %133, i64 1
  store i8 %132, ptr %134, align 1, !tbaa !14
  %135 = load ptr, ptr %7, align 8, !tbaa !10
  %136 = getelementptr inbounds i8, ptr %135, i64 2
  %137 = load i8, ptr %136, align 1, !tbaa !14
  %138 = zext i8 %137 to i32
  %139 = and i32 %138, 3
  %140 = shl i32 %139, 6
  %141 = load ptr, ptr %7, align 8, !tbaa !10
  %142 = getelementptr inbounds i8, ptr %141, i64 3
  %143 = load i8, ptr %142, align 1, !tbaa !14
  %144 = zext i8 %143 to i32
  %145 = and i32 %144, 63
  %146 = or i32 %140, %145
  %147 = trunc i32 %146 to i8
  %148 = load ptr, ptr %9, align 8, !tbaa !10
  %149 = getelementptr inbounds i8, ptr %148, i64 0
  store i8 %147, ptr %149, align 1, !tbaa !14
  br label %150

150:                                              ; preds = %102, %70
  br label %151

151:                                              ; preds = %150, %36
  br label %152

152:                                              ; preds = %151, %19
  ret i64 4
}