; Function Attrs: mustprogress nofree norecurse nosync nounwind sspstrong willreturn memory(argmem: readwrite) uwtable
define internal noundef i64 @fun_so_to_utf_32le(ptr readnone captures(none) %0, ptr noundef readonly captures(none) %1, i64 %2, ptr noundef writeonly captures(none) initializes((0, 4)) %3, i64 %4) #2 {
  %6 = getelementptr inbounds nuw i8, ptr %3, i64 3
  store i8 0, ptr %6, align 1, !tbaa !6
  %7 = load i8, ptr %1, align 1, !tbaa !6
  %8 = zext i8 %7 to i32
  %.not = icmp sgt i8 %7, -1
  br i1 %.not, label %9, label %13

9:                                                ; preds = %5
  %10 = getelementptr inbounds nuw i8, ptr %3, i64 1
  store i8 0, ptr %10, align 1, !tbaa !6
  %11 = getelementptr inbounds nuw i8, ptr %3, i64 2
  store i8 0, ptr %11, align 1, !tbaa !6
  %12 = load i8, ptr %1, align 1, !tbaa !6
  br label %70

13:                                               ; preds = %5
  %14 = and i32 %8, 224
  %15 = icmp eq i32 %14, 192
  br i1 %15, label %16, label %28

16:                                               ; preds = %13
  %17 = getelementptr inbounds nuw i8, ptr %3, i64 2
  store i8 0, ptr %17, align 1, !tbaa !6
  %18 = load i8, ptr %1, align 1, !tbaa !6
  %19 = lshr i8 %18, 2
  %20 = and i8 %19, 7
  %21 = getelementptr inbounds nuw i8, ptr %3, i64 1
  store i8 %20, ptr %21, align 1, !tbaa !6
  %22 = load i8, ptr %1, align 1, !tbaa !6
  %23 = shl i8 %22, 6
  %24 = getelementptr inbounds nuw i8, ptr %1, i64 1
  %25 = load i8, ptr %24, align 1, !tbaa !6
  %26 = and i8 %25, 63
  %27 = or disjoint i8 %26, %23
  br label %70

28:                                               ; preds = %13
  %29 = and i32 %8, 240
  %30 = icmp eq i32 %29, 224
  br i1 %30, label %31, label %47

31:                                               ; preds = %28
  %32 = getelementptr inbounds nuw i8, ptr %3, i64 2
  store i8 0, ptr %32, align 1, !tbaa !6
  %33 = load i8, ptr %1, align 1, !tbaa !6
  %34 = shl i8 %33, 4
  %35 = getelementptr inbounds nuw i8, ptr %1, i64 1
  %36 = load i8, ptr %35, align 1, !tbaa !6
  %37 = lshr i8 %36, 2
  %38 = xor i8 %37, 32
  %39 = or i8 %38, %34
  %40 = getelementptr inbounds nuw i8, ptr %3, i64 1
  store i8 %39, ptr %40, align 1, !tbaa !6
  %41 = load i8, ptr %35, align 1, !tbaa !6
  %42 = shl i8 %41, 6
  %43 = getelementptr inbounds nuw i8, ptr %1, i64 2
  %44 = load i8, ptr %43, align 1, !tbaa !6
  %45 = xor i8 %44, -128
  %46 = or i8 %45, %42
  br label %70

47:                                               ; preds = %28
  %48 = shl i8 %7, 2
  %49 = and i8 %48, 28
  %50 = getelementptr inbounds nuw i8, ptr %1, i64 1
  %51 = load i8, ptr %50, align 1, !tbaa !6
  %52 = lshr i8 %51, 4
  %53 = and i8 %52, 3
  %54 = or disjoint i8 %53, %49
  %55 = getelementptr inbounds nuw i8, ptr %3, i64 2
  store i8 %54, ptr %55, align 1, !tbaa !6
  %56 = load i8, ptr %50, align 1, !tbaa !6
  %57 = shl i8 %56, 4
  %58 = getelementptr inbounds nuw i8, ptr %1, i64 2
  %59 = load i8, ptr %58, align 1, !tbaa !6
  %60 = lshr i8 %59, 2
  %61 = and i8 %60, 15
  %62 = or disjoint i8 %61, %57
  %63 = getelementptr inbounds nuw i8, ptr %3, i64 1
  store i8 %62, ptr %63, align 1, !tbaa !6
  %64 = load i8, ptr %58, align 1, !tbaa !6
  %65 = shl i8 %64, 6
  %66 = getelementptr inbounds nuw i8, ptr %1, i64 3
  %67 = load i8, ptr %66, align 1, !tbaa !6
  %68 = and i8 %67, 63
  %69 = or disjoint i8 %68, %65
  br label %70

70:                                               ; preds = %16, %47, %31, %9
  %.sink = phi i8 [ %27, %16 ], [ %69, %47 ], [ %46, %31 ], [ %12, %9 ]
  store i8 %.sink, ptr %3, align 1, !tbaa !6
  ret i64 4
}